target datalayout = "e-m:e-p270:32:32-p271:32:32-p272:64:64-i64:64-i128:128-f80:128-n8:16:32:64-S128"
target triple = "x86_64-unknown-linux-gnu"

%struct.TPMPassthruState = type { %struct.TPMBackend, ptr, ptr, i32, i8, i8, i32, i32, i64 }
%struct.TPMBackend = type { %struct.Object, ptr, i8, i8, ptr, ptr, %struct.anon }
%struct.Object = type { ptr, ptr, ptr, i32, ptr }
%struct.anon = type { ptr, ptr }
%struct.TpmTypeOptions = type { i32, %union.anon }
%union.anon = type { %struct.TPMPassthroughOptionsWrapper }
%struct.TPMPassthroughOptionsWrapper = type { ptr }

@.str = private unnamed_addr constant [16 x i8] c"tpm-passthrough\00", align 1
@.str.2 = private unnamed_addr constant [39 x i8] c"../qemu/backends/tpm/tpm_passthrough.c\00", align 1
@__func__.TPM_PASSTHROUGH = private unnamed_addr constant [16 x i8] c"TPM_PASSTHROUGH\00", align 1

; Function Attrs: nounwind sspstrong uwtable
define internal ptr @TPM_PASSTHROUGH(ptr noundef %obj) #0 {
entry:
  %obj.addr = alloca ptr, align 8
  store ptr %obj, ptr %obj.addr, align 8
  %0 = load ptr, ptr %obj.addr, align 8
  %call = call ptr @object_dynamic_cast_assert(ptr noundef %0, ptr noundef @.str, ptr noundef @.str.2, i32 noundef 38, ptr noundef @__func__.TPM_PASSTHROUGH)
  ret ptr %call
}

; Function Attrs: nounwind sspstrong uwtable
define internal ptr @tpm_passthrough_get_tpm_options(ptr noundef %tb) #0 {
entry:
  %tb.addr = alloca ptr, align 8
  %options = alloca ptr, align 8
  store ptr %tb, ptr %tb.addr, align 8
  %call = call noalias ptr @g_malloc0_n(i64 noundef 1, i64 noundef 16) #8
  store ptr %call, ptr %options, align 8
  %0 = load ptr, ptr %options, align 8
  %type = getelementptr inbounds %struct.TpmTypeOptions, ptr %0, i32 0, i32 0
  store i32 0, ptr %type, align 8
  %1 = load ptr, ptr %tb.addr, align 8
  %call1 = call ptr @TPM_PASSTHROUGH(ptr noundef %1)
  %options2 = getelementptr inbounds %struct.TPMPassthruState, ptr %call1, i32 0, i32 1
  %2 = load ptr, ptr %options2, align 8
  %call3 = call ptr @qapi_clone(ptr noundef %2, ptr noundef @visit_type_TPMPassthroughOptions)
  %3 = load ptr, ptr %options, align 8
  %u = getelementptr inbounds %struct.TpmTypeOptions, ptr %3, i32 0, i32 1
  %data = getelementptr inbounds %struct.TPMPassthroughOptionsWrapper, ptr %u, i32 0, i32 0
  store ptr %call3, ptr %data, align 8
  %4 = load ptr, ptr %options, align 8
  ret ptr %4
}