; Function Attrs: nounwind sspstrong uwtable
define internal noalias noundef ptr @tpm_passthrough_get_tpm_options(ptr noundef %tb) #0 {
entry:
  %call = tail call noalias dereferenceable_or_null(16) ptr @g_malloc0_n(i64 noundef 1, i64 noundef 16) #12
  store i32 0, ptr %call, align 8
  %call.i = tail call ptr @object_dynamic_cast_assert(ptr noundef %tb, ptr noundef nonnull @.str, ptr noundef nonnull @.str.2, i32 noundef 38, ptr noundef nonnull @__func__.TPM_PASSTHROUGH) #11
  %options2 = getelementptr inbounds nuw i8, ptr %call.i, i64 88
  %0 = load ptr, ptr %options2, align 8
  %call3 = tail call ptr @qapi_clone(ptr noundef %0, ptr noundef nonnull @visit_type_TPMPassthroughOptions) #11
  %u = getelementptr inbounds nuw i8, ptr %call, i64 8
  store ptr %call3, ptr %u, align 8
  ret ptr %call
}